; Function Attrs: mustprogress nofree norecurse nosync nounwind willreturn memory(readwrite, inaccessiblemem: none) uwtable
define noundef i32 @SUNAdaptController_UpdateH_ImExGus(ptr noundef readonly captures(none) %0, double noundef %1, double noundef %2) #5 {
  %4 = load ptr, ptr %0, align 8, !tbaa !19
  %5 = getelementptr inbounds nuw i8, ptr %4, i64 32
  %6 = load double, ptr %5, align 8, !tbaa !27
  %7 = fmul double %2, %6
  %8 = getelementptr inbounds nuw i8, ptr %4, i64 40
  store double %7, ptr %8, align 8, !tbaa !28
  %9 = getelementptr inbounds nuw i8, ptr %4, i64 48
  store double %1, ptr %9, align 8, !tbaa !30
  %10 = getelementptr inbounds nuw i8, ptr %4, i64 56
  store i32 0, ptr %10, align 8, !tbaa !29
  ret i32 0
}